; Function Attrs: mustprogress nounwind uwtable
define dso_local noundef ptr @_ZNK4llvm8Constant19getAggregateElementEPS0_(ptr noundef nonnull align 8 dereferenceable(24) %0, ptr noundef %1) local_unnamed_addr #0 align 2 {
  %3 = load i8, ptr %1, align 8
  %.not = icmp eq i8 %3, 17
  br i1 %.not, label %4, label %22

4:                                                ; preds = %2
  %5 = getelementptr inbounds nuw i8, ptr %1, i64 24
  %6 = getelementptr inbounds i8, ptr %1, i64 32
  %7 = load i32, ptr %6, align 8
  %8 = icmp ult i32 %7, 65
  br i1 %8, label %9, label %14

9:                                                ; preds = %4
  %.neg.i.i = add nsw i32 %7, -64
  %10 = load i64, ptr %5, align 8
  %11 = tail call range(i64 0, 65) i64 @llvm.ctlz.i64(i64 %10, i1 false)
  %12 = trunc nuw nsw i64 %11 to i32
  %13 = add nsw i32 %.neg.i.i, %12
  br label %_ZNK4llvm5APInt13getActiveBitsEv.exit

14:                                               ; preds = %4
  %15 = tail call noundef i32 @_ZNK4llvm5APInt25countLeadingZerosSlowCaseEv(ptr noundef nonnull align 8 dereferenceable(12) %5) #30
  br label %_ZNK4llvm5APInt13getActiveBitsEv.exit

_ZNK4llvm5APInt13getActiveBitsEv.exit:            ; preds = %9, %14
  %.0.i.i = phi i32 [ %13, %9 ], [ %15, %14 ]
  %16 = sub i32 %7, %.0.i.i
  %17 = icmp ugt i32 %16, 64
  br i1 %17, label %22, label %18

18:                                               ; preds = %_ZNK4llvm5APInt13getActiveBitsEv.exit
  %19 = load ptr, ptr %5, align 8
  %.0.in.i.i = select i1 %8, ptr %5, ptr %19
  %.0.i.i7 = load i64, ptr %.0.in.i.i, align 8
  %20 = trunc i64 %.0.i.i7 to i32
  %21 = tail call noundef ptr @_ZNK4llvm8Constant19getAggregateElementEj(ptr noundef nonnull align 8 dereferenceable(24) %0, i32 noundef %20)
  br label %22

22:                                               ; preds = %2, %_ZNK4llvm5APInt13getActiveBitsEv.exit, %18
  %.0 = phi ptr [ %21, %18 ], [ null, %_ZNK4llvm5APInt13getActiveBitsEv.exit ], [ null, %2 ]
  ret ptr %.0
}